target datalayout = "e-m:e-p270:32:32-p271:32:32-p272:64:64-i64:64-i128:128-f80:128-n8:16:32:64-S128"
target triple = "x86_64-pc-linux-gnu"

%struct.preference = type { ptr, ptr, ptr, i32, i32, i32, %union.anon, %union.anon.0, %union.anon.1, %union.anon.2, %struct.pref_custom_cbs, ptr, ptr }
%union.anon = type { ptr }
%union.anon.0 = type { ptr }
%union.anon.1 = type { ptr }
%union.anon.2 = type { %struct.anon }
%struct.anon = type { ptr, i8 }
%struct.pref_custom_cbs = type { ptr, ptr, ptr, ptr, ptr, ptr, ptr }
%struct.pref_module = type { ptr, ptr, ptr, ptr, ptr, ptr, ptr, ptr, i32, i32, i8, i8, i32 }
%struct._fmt_data = type { ptr, i32, ptr, i32, i8, i8 }
%struct.find_pref_arg_t = type { ptr, ptr, ptr }
%struct._GList = type { ptr, ptr, ptr }
%struct._GString = type { ptr, i64, i64 }

@.str.10 = private unnamed_addr constant [1 x i8] zeroinitializer, align 1
@.str.30 = private unnamed_addr constant [2 x i8] c",\00", align 1
@gui_column_module = internal global ptr null, align 8
@.str.131 = private unnamed_addr constant [14 x i8] c"column.format\00", align 1

; Function Attrs: null_pointer_is_valid sspstrong uwtable
define internal ptr @prefs_find_preference_with_submodule(ptr noundef %0, ptr noundef %1, ptr noundef %2) #1 {
  %4 = alloca ptr, align 8
  %5 = alloca ptr, align 8
  %6 = alloca ptr, align 8
  %7 = alloca ptr, align 8
  %8 = alloca %struct.find_pref_arg_t, align 8
  %9 = alloca ptr, align 8
  %10 = alloca i32, align 4
  store ptr %0, ptr %5, align 8
  store ptr %1, ptr %6, align 8
  store ptr %2, ptr %7, align 8
  call void @llvm.lifetime.start.p0(i64 24, ptr %8) #17
  call void @llvm.lifetime.start.p0(i64 8, ptr %9) #17
  %11 = load ptr, ptr %5, align 8
  %12 = icmp eq ptr %11, null
  br i1 %12, label %13, label %14

13:                                               ; preds = %3
  store ptr null, ptr %4, align 8
  store i32 1, ptr %10, align 4
  br label %62

14:                                               ; preds = %3
  %15 = load ptr, ptr %5, align 8
  %16 = getelementptr inbounds nuw %struct.pref_module, ptr %15, i32 0, i32 5
  %17 = load ptr, ptr %16, align 8
  %18 = load ptr, ptr %6, align 8
  %19 = call ptr @g_list_find_custom(ptr noundef %17, ptr noundef %18, ptr noundef @preference_match)
  store ptr %19, ptr %9, align 8
  %20 = getelementptr inbounds nuw %struct.find_pref_arg_t, ptr %8, i32 0, i32 2
  store ptr null, ptr %20, align 8
  %21 = load ptr, ptr %9, align 8
  %22 = icmp eq ptr %21, null
  br i1 %22, label %23, label %39

23:                                               ; preds = %14
  %24 = getelementptr inbounds nuw %struct.find_pref_arg_t, ptr %8, i32 0, i32 0
  store ptr null, ptr %24, align 8
  %25 = load ptr, ptr %5, align 8
  %26 = getelementptr inbounds nuw %struct.pref_module, ptr %25, i32 0, i32 7
  %27 = load ptr, ptr %26, align 8
  %28 = icmp ne ptr %27, null
  br i1 %28, label %29, label %36

29:                                               ; preds = %23
  %30 = load ptr, ptr %6, align 8
  %31 = getelementptr inbounds nuw %struct.find_pref_arg_t, ptr %8, i32 0, i32 1
  store ptr %30, ptr %31, align 8
  %32 = load ptr, ptr %5, align 8
  %33 = getelementptr inbounds nuw %struct.pref_module, ptr %32, i32 0, i32 7
  %34 = load ptr, ptr %33, align 8
  %35 = call zeroext i1 @wmem_tree_foreach(ptr noundef %34, ptr noundef @module_find_pref_cb, ptr noundef %8)
  br label %36

36:                                               ; preds = %29, %23
  %37 = getelementptr inbounds nuw %struct.find_pref_arg_t, ptr %8, i32 0, i32 0
  %38 = load ptr, ptr %37, align 8
  store ptr %38, ptr %9, align 8
  br label %39

39:                                               ; preds = %36, %14
  %40 = load ptr, ptr %9, align 8
  %41 = icmp eq ptr %40, null
  br i1 %41, label %42, label %43

42:                                               ; preds = %39
  store ptr null, ptr %4, align 8
  store i32 1, ptr %10, align 4
  br label %62

43:                                               ; preds = %39
  %44 = load ptr, ptr %7, align 8
  %45 = icmp ne ptr %44, null
  br i1 %45, label %46, label %58

46:                                               ; preds = %43
  %47 = getelementptr inbounds nuw %struct.find_pref_arg_t, ptr %8, i32 0, i32 2
  %48 = load ptr, ptr %47, align 8
  %49 = icmp ne ptr %48, null
  br i1 %49, label %50, label %53

50:                                               ; preds = %46
  %51 = getelementptr inbounds nuw %struct.find_pref_arg_t, ptr %8, i32 0, i32 2
  %52 = load ptr, ptr %51, align 8
  br label %55

53:                                               ; preds = %46
  %54 = load ptr, ptr %5, align 8
  br label %55

55:                                               ; preds = %53, %50
  %56 = phi ptr [ %52, %50 ], [ %54, %53 ]
  %57 = load ptr, ptr %7, align 8
  store ptr %56, ptr %57, align 8
  br label %58

58:                                               ; preds = %55, %43
  %59 = load ptr, ptr %9, align 8
  %60 = getelementptr inbounds nuw %struct._GList, ptr %59, i32 0, i32 0
  %61 = load ptr, ptr %60, align 8
  store ptr %61, ptr %4, align 8
  store i32 1, ptr %10, align 4
  br label %62

62:                                               ; preds = %58, %42, %13
  call void @llvm.lifetime.end.p0(i64 8, ptr %9) #17
  call void @llvm.lifetime.end.p0(i64 24, ptr %8) #17
  %63 = load ptr, ptr %4, align 8
  ret ptr %63
}

; Function Attrs: null_pointer_is_valid sspstrong uwtable
define ptr @prefs_find_preference(ptr noundef %0, ptr noundef %1) #1 {
  %3 = alloca ptr, align 8
  %4 = alloca ptr, align 8
  store ptr %0, ptr %3, align 8
  store ptr %1, ptr %4, align 8
  %5 = load ptr, ptr %3, align 8
  %6 = load ptr, ptr %4, align 8
  %7 = call ptr @prefs_find_preference_with_submodule(ptr noundef %5, ptr noundef %6, ptr noundef null)
  ret ptr %7
}

; Function Attrs: null_pointer_is_valid sspstrong uwtable
define internal ptr @column_hidden_fmt_to_str_cb(ptr noundef %0, i1 noundef zeroext %1) #1 {
  %3 = alloca ptr, align 8
  %4 = alloca ptr, align 8
  %5 = alloca i8, align 1
  %6 = alloca ptr, align 8
  %7 = alloca ptr, align 8
  %8 = alloca ptr, align 8
  %9 = alloca ptr, align 8
  %10 = alloca i32, align 4
  %11 = alloca ptr, align 8
  store ptr %0, ptr %4, align 8
  %12 = zext i1 %1 to i8
  store i8 %12, ptr %5, align 1
  call void @llvm.lifetime.start.p0(i64 8, ptr %6) #17
  call void @llvm.lifetime.start.p0(i64 8, ptr %7) #17
  call void @llvm.lifetime.start.p0(i64 8, ptr %8) #17
  call void @llvm.lifetime.start.p0(i64 8, ptr %9) #17
  %13 = load i8, ptr %5, align 1, !range !6, !noundef !7
  %14 = trunc i8 %13 to i1
  br i1 %14, label %15, label %20

15:                                               ; preds = %2
  %16 = load ptr, ptr %4, align 8
  %17 = getelementptr inbounds nuw %struct.preference, ptr %16, i32 0, i32 8
  %18 = load ptr, ptr %17, align 8
  %19 = call noalias ptr @g_strdup(ptr noundef %18)
  store ptr %19, ptr %3, align 8
  store i32 1, ptr %10, align 4
  br label %67

20:                                               ; preds = %2
  %21 = call ptr @g_string_new(ptr noundef @.str.10)
  store ptr %21, ptr %6, align 8
  %22 = load ptr, ptr @gui_column_module, align 8
  %23 = call ptr @prefs_find_preference(ptr noundef %22, ptr noundef @.str.131)
  store ptr %23, ptr %9, align 8
  %24 = load ptr, ptr %9, align 8
  %25 = icmp ne ptr %24, null
  br i1 %25, label %26, label %31

26:                                               ; preds = %20
  %27 = load ptr, ptr %9, align 8
  %28 = getelementptr inbounds nuw %struct.preference, ptr %27, i32 0, i32 6
  %29 = load ptr, ptr %28, align 8
  %30 = load ptr, ptr %29, align 8
  br label %32

31:                                               ; preds = %20
  br label %32

32:                                               ; preds = %31, %26
  %33 = phi ptr [ %30, %26 ], [ null, %31 ]
  store ptr %33, ptr %7, align 8
  br label %34

34:                                               ; preds = %60, %32
  %35 = load ptr, ptr %7, align 8
  %36 = icmp ne ptr %35, null
  br i1 %36, label %37, label %64

37:                                               ; preds = %34
  call void @llvm.lifetime.start.p0(i64 8, ptr %11) #17
  %38 = load ptr, ptr %7, align 8
  %39 = getelementptr inbounds nuw %struct._GList, ptr %38, i32 0, i32 0
  %40 = load ptr, ptr %39, align 8
  store ptr %40, ptr %8, align 8
  %41 = load ptr, ptr %8, align 8
  %42 = getelementptr inbounds nuw %struct._fmt_data, ptr %41, i32 0, i32 4
  %43 = load i8, ptr %42, align 4, !range !6, !noundef !7
  %44 = trunc i8 %43 to i1
  br i1 %44, label %60, label %45

45:                                               ; preds = %37
  %46 = load ptr, ptr %6, align 8
  %47 = getelementptr inbounds nuw %struct._GString, ptr %46, i32 0, i32 1
  %48 = load i64, ptr %47, align 8
  %49 = icmp ne i64 %48, 0
  br i1 %49, label %50, label %53

50:                                               ; preds = %45
  %51 = load ptr, ptr %6, align 8
  %52 = call ptr @g_string_append(ptr noundef %51, ptr noundef @.str.30)
  br label %53

53:                                               ; preds = %50, %45
  %54 = load ptr, ptr %8, align 8
  %55 = call ptr @column_fmt_data_to_str(ptr noundef %54)
  store ptr %55, ptr %11, align 8
  %56 = load ptr, ptr %6, align 8
  %57 = load ptr, ptr %11, align 8
  %58 = call ptr @g_string_append(ptr noundef %56, ptr noundef %57)
  %59 = load ptr, ptr %11, align 8
  call void @g_free(ptr noundef %59)
  br label %60

60:                                               ; preds = %53, %37
  %61 = load ptr, ptr %7, align 8
  %62 = getelementptr inbounds nuw %struct._GList, ptr %61, i32 0, i32 1
  %63 = load ptr, ptr %62, align 8
  store ptr %63, ptr %7, align 8
  call void @llvm.lifetime.end.p0(i64 8, ptr %11) #17
  br label %34, !llvm.loop !43

64:                                               ; preds = %34
  %65 = load ptr, ptr %6, align 8
  %66 = call ptr @g_string_free(ptr noundef %65, i32 noundef 0)
  store ptr %66, ptr %3, align 8
  store i32 1, ptr %10, align 4
  br label %67

67:                                               ; preds = %64, %15
  call void @llvm.lifetime.end.p0(i64 8, ptr %9) #17
  call void @llvm.lifetime.end.p0(i64 8, ptr %8) #17
  call void @llvm.lifetime.end.p0(i64 8, ptr %7) #17
  call void @llvm.lifetime.end.p0(i64 8, ptr %6) #17
  %68 = load ptr, ptr %3, align 8
  ret ptr %68
}