; Function Attrs: null_pointer_is_valid sspstrong uwtable
define internal ptr @column_hidden_fmt_to_str_cb(ptr noundef readonly captures(none) %0, i1 noundef zeroext %1) #1 {
  %3 = alloca %struct.find_pref_arg_t, align 8
  br i1 %1, label %4, label %8

4:                                                ; preds = %2
  %5 = getelementptr inbounds nuw i8, ptr %0, i64 56
  %6 = load ptr, ptr %5, align 8
  %7 = tail call noalias ptr @g_strdup(ptr noundef %6)
  br label %47

8:                                                ; preds = %2
  %9 = tail call ptr @g_string_new(ptr noundef nonnull @.str.10)
  %10 = load ptr, ptr @gui_column_module, align 8
  call void @llvm.lifetime.start.p0(i64 24, ptr nonnull %3) #25
  %11 = icmp eq ptr %10, null
  br i1 %11, label %prefs_find_preference.exit.thread, label %12

12:                                               ; preds = %8
  %13 = getelementptr inbounds nuw i8, ptr %10, i64 40
  %14 = load ptr, ptr %13, align 8
  %15 = tail call ptr @g_list_find_custom(ptr noundef %14, ptr noundef nonnull @.str.131, ptr noundef nonnull @preference_match)
  %16 = getelementptr inbounds nuw i8, ptr %3, i64 16
  store ptr null, ptr %16, align 8
  %17 = icmp eq ptr %15, null
  br i1 %17, label %18, label %prefs_find_preference.exit

18:                                               ; preds = %12
  store ptr null, ptr %3, align 8
  %19 = getelementptr inbounds nuw i8, ptr %10, i64 56
  %20 = load ptr, ptr %19, align 8
  %.not.i.i = icmp eq ptr %20, null
  br i1 %.not.i.i, label %prefs_find_preference.exit.thread, label %21

21:                                               ; preds = %18
  %22 = getelementptr inbounds nuw i8, ptr %3, i64 8
  store ptr @.str.131, ptr %22, align 8
  %23 = call zeroext i1 @wmem_tree_foreach(ptr noundef nonnull %20, ptr noundef nonnull @module_find_pref_cb, ptr noundef nonnull %3)
  %.pr.i.i = load ptr, ptr %3, align 8
  %24 = icmp eq ptr %.pr.i.i, null
  br i1 %24, label %prefs_find_preference.exit.thread, label %prefs_find_preference.exit

prefs_find_preference.exit.thread:                ; preds = %8, %21, %18
  call void @llvm.lifetime.end.p0(i64 24, ptr nonnull %3) #25
  br label %._crit_edge

prefs_find_preference.exit:                       ; preds = %12, %21
  %.020.i.i = phi ptr [ %.pr.i.i, %21 ], [ %15, %12 ]
  %25 = load ptr, ptr %.020.i.i, align 8
  call void @llvm.lifetime.end.p0(i64 24, ptr nonnull %3) #25
  %.not = icmp eq ptr %25, null
  br i1 %.not, label %._crit_edge, label %26

26:                                               ; preds = %prefs_find_preference.exit
  %27 = getelementptr inbounds nuw i8, ptr %25, i64 40
  %28 = load ptr, ptr %27, align 8
  %29 = load ptr, ptr %28, align 8
  %.not1721 = icmp eq ptr %29, null
  br i1 %.not1721, label %._crit_edge, label %.lr.ph

.lr.ph:                                           ; preds = %26
  %30 = getelementptr inbounds nuw i8, ptr %9, i64 8
  br label %31

31:                                               ; preds = %.lr.ph, %43
  %.01522 = phi ptr [ %29, %.lr.ph ], [ %45, %43 ]
  %32 = load ptr, ptr %.01522, align 8
  %33 = getelementptr inbounds nuw i8, ptr %32, i64 28
  %34 = load i8, ptr %33, align 4, !range !6, !noundef !7
  %35 = trunc nuw i8 %34 to i1
  br i1 %35, label %43, label %36

36:                                               ; preds = %31
  %37 = load i64, ptr %30, align 8
  %.not18 = icmp eq i64 %37, 0
  br i1 %.not18, label %40, label %38

38:                                               ; preds = %36
  %39 = call ptr @g_string_append(ptr noundef %9, ptr noundef nonnull @.str.30)
  br label %40

40:                                               ; preds = %38, %36
  %41 = call ptr @column_fmt_data_to_str(ptr noundef %32)
  %42 = call ptr @g_string_append(ptr noundef %9, ptr noundef %41)
  call void @g_free(ptr noundef %41)
  br label %43

43:                                               ; preds = %40, %31
  %44 = getelementptr inbounds nuw i8, ptr %.01522, i64 8
  %45 = load ptr, ptr %44, align 8
  %.not17 = icmp eq ptr %45, null
  br i1 %.not17, label %._crit_edge, label %31, !llvm.loop !49

._crit_edge:                                      ; preds = %43, %prefs_find_preference.exit.thread, %prefs_find_preference.exit, %26
  %46 = call ptr @g_string_free(ptr noundef %9, i32 noundef 0)
  br label %47

47:                                               ; preds = %._crit_edge, %4
  %.0 = phi ptr [ %7, %4 ], [ %46, %._crit_edge ]
  ret ptr %.0
}